target datalayout = "e-m:e-p270:32:32-p271:32:32-p272:64:64-i64:64-i128:128-f80:128-n8:16:32:64-S128"
target triple = "x86_64-unknown-linux-gnu"

%struct.FLAC__BitWriter = type { ptr, i64, i32, i32, i32 }

; Function Attrs: nounwind sspstrong uwtable
define hidden void @FLAC__bitwriter_free(ptr noundef %bw) #0 {
entry:
  %bw.addr = alloca ptr, align 8
  store ptr %bw, ptr %bw.addr, align 8
  %0 = load ptr, ptr %bw.addr, align 8
  %buffer = getelementptr inbounds %struct.FLAC__BitWriter, ptr %0, i32 0, i32 0
  %1 = load ptr, ptr %buffer, align 8
  %cmp = icmp ne ptr null, %1
  br i1 %cmp, label %if.then, label %if.end

if.then:                                          ; preds = %entry
  %2 = load ptr, ptr %bw.addr, align 8
  %buffer1 = getelementptr inbounds %struct.FLAC__BitWriter, ptr %2, i32 0, i32 0
  %3 = load ptr, ptr %buffer1, align 8
  call void @free(ptr noundef %3) #8
  br label %if.end

if.end:                                           ; preds = %if.then, %entry
  %4 = load ptr, ptr %bw.addr, align 8
  %buffer2 = getelementptr inbounds %struct.FLAC__BitWriter, ptr %4, i32 0, i32 0
  store ptr null, ptr %buffer2, align 8
  %5 = load ptr, ptr %bw.addr, align 8
  %capacity = getelementptr inbounds %struct.FLAC__BitWriter, ptr %5, i32 0, i32 2
  store i32 0, ptr %capacity, align 8
  %6 = load ptr, ptr %bw.addr, align 8
  %bits = getelementptr inbounds %struct.FLAC__BitWriter, ptr %6, i32 0, i32 4
  store i32 0, ptr %bits, align 8
  %7 = load ptr, ptr %bw.addr, align 8
  %words = getelementptr inbounds %struct.FLAC__BitWriter, ptr %7, i32 0, i32 3
  store i32 0, ptr %words, align 4
  ret void
}

; Function Attrs: nounwind sspstrong uwtable
define hidden void @FLAC__bitwriter_delete(ptr noundef %bw) #0 {
entry:
  %bw.addr = alloca ptr, align 8
  store ptr %bw, ptr %bw.addr, align 8
  %0 = load ptr, ptr %bw.addr, align 8
  call void @FLAC__bitwriter_free(ptr noundef %0)
  %1 = load ptr, ptr %bw.addr, align 8
  call void @free(ptr noundef %1) #8
  ret void
}