; Function Attrs: mustprogress nounwind sspstrong willreturn uwtable
define hidden void @FLAC__bitwriter_delete(ptr noundef captures(none) %bw) local_unnamed_addr #2 {
entry:
  %0 = load ptr, ptr %bw, align 8
  %cmp.not.i = icmp eq ptr %0, null
  br i1 %cmp.not.i, label %FLAC__bitwriter_free.exit, label %if.then.i

if.then.i:                                        ; preds = %entry
  tail call void @free(ptr noundef nonnull %0) #15
  br label %FLAC__bitwriter_free.exit

FLAC__bitwriter_free.exit:                        ; preds = %entry, %if.then.i
  tail call void @free(ptr noundef nonnull %bw) #15
  ret void
}